target datalayout = "e-m:e-p270:32:32-p271:32:32-p272:64:64-i64:64-i128:128-f80:128-n8:16:32:64-S128"
target triple = "x86_64-pc-linux-gnu"

; Function Attrs: nounwind uwtable
define dso_local i64 @bit_fls_from_bit(ptr noundef %0, i64 noundef %1) #0 {
  %3 = alloca i64, align 8
  %4 = alloca ptr, align 8
  %5 = alloca i64, align 8
  %6 = alloca i64, align 8
  %7 = alloca i32, align 4
  %8 = alloca i32, align 4
  store ptr %0, ptr %4, align 8
  store i64 %1, ptr %5, align 8
  call void @llvm.lifetime.start.p0(i64 8, ptr %6) #12
  store i64 -1, ptr %6, align 8
  call void @llvm.lifetime.start.p0(i64 4, ptr %7) #12
  br label %9

9:                                                ; preds = %2
  br label %10

10:                                               ; preds = %9
  br label %11

11:                                               ; preds = %10
  br label %12

12:                                               ; preds = %11
  br label %13

13:                                               ; preds = %12
  br label %14

14:                                               ; preds = %13
  %15 = load ptr, ptr %4, align 8
  %16 = getelementptr inbounds i64, ptr %15, i64 1
  %17 = load i64, ptr %16, align 8
  %18 = icmp eq i64 %17, 0
  br i1 %18, label %19, label %20

19:                                               ; preds = %14
  store i64 -1, ptr %3, align 8
  store i32 1, ptr %8, align 4
  br label %90

20:                                               ; preds = %14
  br label %21

21:                                               ; preds = %51, %20
  %22 = load i64, ptr %5, align 8
  %23 = icmp sge i64 %22, 0
  br i1 %23, label %24, label %33

24:                                               ; preds = %21
  %25 = load i64, ptr %5, align 8
  %26 = ashr i64 %25, 6
  %27 = add nsw i64 %26, 2
  %28 = load i64, ptr %5, align 8
  %29 = add nsw i64 %28, 1
  %30 = ashr i64 %29, 6
  %31 = add nsw i64 %30, 2
  %32 = icmp eq i64 %27, %31
  br label %33

33:                                               ; preds = %24, %21
  %34 = phi i1 [ false, %21 ], [ %32, %24 ]
  br i1 %34, label %35, label %54

35:                                               ; preds = %33
  %36 = load ptr, ptr %4, align 8
  %37 = load i64, ptr %5, align 8
  %38 = ashr i64 %37, 6
  %39 = add nsw i64 %38, 2
  %40 = getelementptr inbounds i64, ptr %36, i64 %39
  %41 = load i64, ptr %40, align 8
  %42 = load i64, ptr %5, align 8
  %43 = and i64 %42, 63
  %44 = shl i64 1, %43
  %45 = and i64 %41, %44
  %46 = icmp ne i64 %45, 0
  br i1 %46, label %47, label %48

47:                                               ; preds = %35
  br i1 true, label %49, label %51

48:                                               ; preds = %35
  br i1 false, label %49, label %51

49:                                               ; preds = %48, %47
  %50 = load i64, ptr %5, align 8
  store i64 %50, ptr %6, align 8
  br label %54

51:                                               ; preds = %48, %47
  %52 = load i64, ptr %5, align 8
  %53 = add nsw i64 %52, -1
  store i64 %53, ptr %5, align 8
  br label %21, !llvm.loop !31

54:                                               ; preds = %49, %33
  br label %55

55:                                               ; preds = %77, %74, %54
  %56 = load i64, ptr %5, align 8
  %57 = icmp sge i64 %56, 0
  br i1 %57, label %58, label %61

58:                                               ; preds = %55
  %59 = load i64, ptr %6, align 8
  %60 = icmp eq i64 %59, -1
  br label %61

61:                                               ; preds = %58, %55
  %62 = phi i1 [ false, %55 ], [ %60, %58 ]
  br i1 %62, label %63, label %88

63:                                               ; preds = %61
  %64 = load i64, ptr %5, align 8
  %65 = ashr i64 %64, 6
  %66 = add nsw i64 %65, 2
  %67 = trunc i64 %66 to i32
  store i32 %67, ptr %7, align 4
  %68 = load ptr, ptr %4, align 8
  %69 = load i32, ptr %7, align 4
  %70 = sext i32 %69 to i64
  %71 = getelementptr inbounds i64, ptr %68, i64 %70
  %72 = load i64, ptr %71, align 8
  %73 = icmp eq i64 %72, 0
  br i1 %73, label %74, label %77

74:                                               ; preds = %63
  %75 = load i64, ptr %5, align 8
  %76 = sub i64 %75, 64
  store i64 %76, ptr %5, align 8
  br label %55, !llvm.loop !32

77:                                               ; preds = %63
  %78 = load i64, ptr %5, align 8
  %79 = load ptr, ptr %4, align 8
  %80 = load i32, ptr %7, align 4
  %81 = sext i32 %80 to i64
  %82 = getelementptr inbounds i64, ptr %79, i64 %81
  %83 = load i64, ptr %82, align 8
  %84 = call i64 @llvm.ctlz.i64(i64 %83, i1 true)
  %85 = trunc i64 %84 to i32
  %86 = sext i32 %85 to i64
  %87 = sub nsw i64 %78, %86
  store i64 %87, ptr %6, align 8
  br label %55, !llvm.loop !32

88:                                               ; preds = %61
  %89 = load i64, ptr %6, align 8
  store i64 %89, ptr %3, align 8
  store i32 1, ptr %8, align 4
  br label %90

90:                                               ; preds = %88, %19
  call void @llvm.lifetime.end.p0(i64 4, ptr %7) #12
  call void @llvm.lifetime.end.p0(i64 8, ptr %6) #12
  %91 = load i64, ptr %3, align 8
  ret i64 %91
}

; Function Attrs: nounwind uwtable
define dso_local i64 @bit_fls(ptr noundef %0) #0 {
  %2 = alloca ptr, align 8
  %3 = alloca i64, align 8
  store ptr %0, ptr %2, align 8
  call void @llvm.lifetime.start.p0(i64 8, ptr %3) #12
  %4 = load ptr, ptr %2, align 8
  %5 = getelementptr inbounds i64, ptr %4, i64 1
  %6 = load i64, ptr %5, align 8
  %7 = sub nsw i64 %6, 1
  store i64 %7, ptr %3, align 8
  %8 = load ptr, ptr %2, align 8
  %9 = load i64, ptr %3, align 8
  %10 = call i64 @bit_fls_from_bit(ptr noundef %8, i64 noundef %9)
  call void @llvm.lifetime.end.p0(i64 8, ptr %3) #12
  ret i64 %10
}