; Function Attrs: nofree norecurse nosync nounwind memory(argmem: read) uwtable
define dso_local range(i64 -63, 9223372036854775807) i64 @bit_fls(ptr noundef readonly captures(none) %0) #3 {
  %2 = getelementptr inbounds nuw i8, ptr %0, i64 8
  %3 = load i64, ptr %2, align 8
  %4 = icmp eq i64 %3, 0
  br i1 %4, label %bit_fls_from_bit.exit, label %.preheader.i

.preheader.i:                                     ; preds = %1
  %invariant.gep.i = getelementptr inbounds nuw i8, ptr %0, i64 16
  %5 = icmp sgt i64 %3, 0
  br i1 %5, label %.lr.ph.i, label %bit_fls_from_bit.exit

.lr.ph.i:                                         ; preds = %.preheader.i, %14
  %.02025.i.in = phi i64 [ %.02025.i, %14 ], [ %3, %.preheader.i ]
  %.02025.i = add nsw i64 %.02025.i.in, -1
  %6 = lshr i64 %.02025.i, 6
  %7 = lshr i64 %.02025.i.in, 6
  %8 = icmp eq i64 %6, %7
  br i1 %8, label %9, label %.lr.ph33.i

9:                                                ; preds = %.lr.ph.i
  %gep.i = getelementptr inbounds nuw i64, ptr %invariant.gep.i, i64 %6
  %10 = load i64, ptr %gep.i, align 8
  %11 = and i64 %.02025.i, 63
  %12 = shl nuw i64 1, %11
  %13 = and i64 %10, %12
  %.not.i = icmp eq i64 %13, 0
  br i1 %.not.i, label %14, label %bit_fls_from_bit.exit

14:                                               ; preds = %9
  %15 = icmp samesign ugt i64 %.02025.i.in, 1
  br i1 %15, label %.lr.ph.i, label %bit_fls_from_bit.exit, !llvm.loop !32

.lr.ph33.i:                                       ; preds = %.lr.ph.i, %.outer.i
  %.121.ph39.i = phi i64 [ %24, %.outer.i ], [ %.02025.i, %.lr.ph.i ]
  %16 = shl i64 %.121.ph39.i, 26
  %sext.i = add i64 %16, 8589934592
  %17 = ashr i64 %sext.i, 32
  %18 = getelementptr inbounds i64, ptr %0, i64 %17
  %19 = load i64, ptr %18, align 8
  %20 = icmp eq i64 %19, 0
  br i1 %20, label %.outer.i, label %.lr.ph33.split.i

.lr.ph33.split.i:                                 ; preds = %.lr.ph33.i
  %21 = tail call range(i64 0, 65) i64 @llvm.ctlz.i64(i64 %19, i1 true)
  %22 = sub nsw i64 %.121.ph39.i, %21
  %23 = icmp eq i64 %22, -1
  br i1 %23, label %.lr.ph33.split.split.i, label %bit_fls_from_bit.exit, !llvm.loop !33

.lr.ph33.split.split.i:                           ; preds = %.lr.ph33.split.i, %.lr.ph33.split.split.i
  br label %.lr.ph33.split.split.i

.outer.i:                                         ; preds = %.lr.ph33.i
  %24 = add nsw i64 %.121.ph39.i, -64
  %25 = icmp sgt i64 %.121.ph39.i, 63
  br i1 %25, label %.lr.ph33.i, label %bit_fls_from_bit.exit, !llvm.loop !33

bit_fls_from_bit.exit:                            ; preds = %9, %14, %.outer.i, %1, %.preheader.i, %.lr.ph33.split.i
  %.0.i = phi i64 [ -1, %1 ], [ %22, %.lr.ph33.split.i ], [ -1, %.preheader.i ], [ -1, %.outer.i ], [ %.02025.i, %9 ], [ -1, %14 ]
  ret i64 %.0.i
}